target datalayout = "e-m:e-p270:32:32-p271:32:32-p272:64:64-i64:64-i128:128-f80:128-n8:16:32:64-S128"
target triple = "x86_64-pc-linux-gnu"

%struct.FT_ListRec_ = type { ptr, ptr }
%struct.FT_FaceRec_ = type { i64, i64, i64, i64, i64, ptr, ptr, i32, ptr, i32, ptr, %struct.FT_Generic_, %struct.FT_BBox_, i16, i16, i16, i16, i16, i16, i16, i16, ptr, ptr, ptr, ptr, ptr, ptr, %struct.FT_ListRec_, %struct.FT_Generic_, ptr, ptr }
%struct.FT_BBox_ = type { i64, i64, i64, i64 }
%struct.FT_Generic_ = type { ptr, ptr }
%struct.CID_FaceRec_ = type { %struct.FT_FaceRec_, ptr, ptr, %struct.CID_FaceInfoRec_, %struct.PS_FontExtraRec_, ptr, ptr, ptr, ptr }
%struct.CID_FaceInfoRec_ = type { ptr, i64, i32, ptr, ptr, i32, %struct.PS_FontInfoRec_, %struct.FT_BBox_, i64, i32, [16 x i64], i64, i32, i32, i64, i32, ptr, i64 }
%struct.PS_FontInfoRec_ = type { ptr, ptr, ptr, ptr, ptr, i64, i8, i16, i16 }
%struct.PS_FontExtraRec_ = type { i16 }
%struct.CID_FaceDictRec_ = type { %struct.PS_PrivateRec_, i32, i64, i64, i64, i8, i8, %struct.FT_Matrix_, %struct.FT_Vector_, i32, i64, i32 }
%struct.PS_PrivateRec_ = type { i32, i32, i8, i8, i8, i8, [14 x i16], [10 x i16], [14 x i16], [10 x i16], i64, i32, i32, [1 x i16], [1 x i16], i8, i8, i8, i8, [13 x i16], [13 x i16], i64, i64, i64, [2 x i16] }
%struct.FT_Matrix_ = type { i64, i64, i64, i64 }
%struct.FT_Vector_ = type { i64, i64 }
%struct.FT_StreamRec_ = type { ptr, i64, i64, %union.FT_StreamDesc_, %union.FT_StreamDesc_, ptr, ptr, ptr, ptr, ptr }
%union.FT_StreamDesc_ = type { i64 }
%struct.CID_Parser_ = type { %struct.PS_ParserRec_, ptr, ptr, i64, i64, i64, ptr, i32 }
%struct.PS_ParserRec_ = type { ptr, ptr, ptr, i32, ptr, %struct.PS_Parser_FuncsRec_ }
%struct.PS_Parser_FuncsRec_ = type { ptr, ptr, ptr, ptr, ptr, ptr, ptr, ptr, ptr, ptr, ptr, ptr, ptr }

; Function Attrs: nounwind uwtable
define internal void @parse_fd_array(ptr noundef %0, ptr noundef %1) #0 {
  %3 = alloca ptr, align 8
  %4 = alloca ptr, align 8
  %5 = alloca ptr, align 8
  %6 = alloca ptr, align 8
  %7 = alloca ptr, align 8
  %8 = alloca ptr, align 8
  %9 = alloca ptr, align 8
  %10 = alloca i32, align 4
  %11 = alloca i64, align 8
  %12 = alloca i64, align 8
  %13 = alloca i32, align 4
  %14 = alloca ptr, align 8
  store ptr %0, ptr %3, align 8
  store ptr %1, ptr %4, align 8
  %15 = load ptr, ptr %3, align 8
  store ptr %15, ptr %5, align 8
  %16 = load ptr, ptr %4, align 8
  store ptr %16, ptr %6, align 8
  %17 = load ptr, ptr %5, align 8
  %18 = getelementptr inbounds %struct.CID_FaceRec_, ptr %17, i32 0, i32 3
  store ptr %18, ptr %7, align 8
  %19 = load ptr, ptr %3, align 8
  %20 = getelementptr inbounds %struct.FT_FaceRec_, ptr %19, i32 0, i32 25
  %21 = load ptr, ptr %20, align 8
  store ptr %21, ptr %8, align 8
  %22 = load ptr, ptr %6, align 8
  %23 = getelementptr inbounds %struct.CID_Parser_, ptr %22, i32 0, i32 1
  %24 = load ptr, ptr %23, align 8
  store ptr %24, ptr %9, align 8
  store i32 0, ptr %10, align 4
  %25 = load ptr, ptr %6, align 8
  %26 = getelementptr inbounds %struct.CID_Parser_, ptr %25, i32 0, i32 0
  %27 = getelementptr inbounds %struct.PS_ParserRec_, ptr %26, i32 0, i32 5
  %28 = getelementptr inbounds %struct.PS_Parser_FuncsRec_, ptr %27, i32 0, i32 4
  %29 = load ptr, ptr %28, align 8
  %30 = load ptr, ptr %6, align 8
  %31 = getelementptr inbounds %struct.CID_Parser_, ptr %30, i32 0, i32 0
  %32 = call i64 %29(ptr noundef %31)
  store i64 %32, ptr %11, align 8
  %33 = load i64, ptr %11, align 8
  %34 = icmp slt i64 %33, 0
  br i1 %34, label %38, label %35

35:                                               ; preds = %2
  %36 = load i64, ptr %11, align 8
  %37 = icmp sgt i64 %36, 2147483647
  br i1 %37, label %38, label %41

38:                                               ; preds = %35, %2
  br label %39

39:                                               ; preds = %38
  br label %40

40:                                               ; preds = %39
  br label %107

41:                                               ; preds = %35
  br label %42

42:                                               ; preds = %41
  br label %43

43:                                               ; preds = %42
  %44 = load ptr, ptr %9, align 8
  %45 = getelementptr inbounds %struct.FT_StreamRec_, ptr %44, i32 0, i32 1
  %46 = load i64, ptr %45, align 8
  %47 = udiv i64 %46, 100
  store i64 %47, ptr %12, align 8
  %48 = load i64, ptr %11, align 8
  %49 = load i64, ptr %12, align 8
  %50 = icmp sgt i64 %48, %49
  br i1 %50, label %51, label %55

51:                                               ; preds = %43
  br label %52

52:                                               ; preds = %51
  br label %53

53:                                               ; preds = %52
  %54 = load i64, ptr %12, align 8
  store i64 %54, ptr %11, align 8
  br label %55

55:                                               ; preds = %53, %43
  %56 = load ptr, ptr %7, align 8
  %57 = getelementptr inbounds %struct.CID_FaceInfoRec_, ptr %56, i32 0, i32 16
  %58 = load ptr, ptr %57, align 8
  %59 = icmp ne ptr %58, null
  br i1 %59, label %106, label %60

60:                                               ; preds = %55
  %61 = load ptr, ptr %8, align 8
  %62 = load i64, ptr %11, align 8
  %63 = call ptr @ft_mem_realloc(ptr noundef %61, i64 noundef 336, i64 noundef 0, i64 noundef %62, ptr noundef null, ptr noundef %10)
  %64 = load ptr, ptr %7, align 8
  %65 = getelementptr inbounds %struct.CID_FaceInfoRec_, ptr %64, i32 0, i32 16
  store ptr %63, ptr %65, align 8
  %66 = load i32, ptr %10, align 4
  %67 = icmp ne i32 %66, 0
  br i1 %67, label %68, label %69

68:                                               ; preds = %60
  br label %107

69:                                               ; preds = %60
  %70 = load i64, ptr %11, align 8
  %71 = trunc i64 %70 to i32
  %72 = load ptr, ptr %7, align 8
  %73 = getelementptr inbounds %struct.CID_FaceInfoRec_, ptr %72, i32 0, i32 15
  store i32 %71, ptr %73, align 8
  store i32 0, ptr %13, align 4
  br label %74

74:                                               ; preds = %102, %69
  %75 = load i32, ptr %13, align 4
  %76 = load ptr, ptr %7, align 8
  %77 = getelementptr inbounds %struct.CID_FaceInfoRec_, ptr %76, i32 0, i32 15
  %78 = load i32, ptr %77, align 8
  %79 = icmp ult i32 %75, %78
  br i1 %79, label %80, label %105

80:                                               ; preds = %74
  %81 = load ptr, ptr %7, align 8
  %82 = getelementptr inbounds %struct.CID_FaceInfoRec_, ptr %81, i32 0, i32 16
  %83 = load ptr, ptr %82, align 8
  %84 = load i32, ptr %13, align 4
  %85 = zext i32 %84 to i64
  %86 = getelementptr inbounds %struct.CID_FaceDictRec_, ptr %83, i64 %85
  store ptr %86, ptr %14, align 8
  %87 = load ptr, ptr %14, align 8
  %88 = getelementptr inbounds %struct.CID_FaceDictRec_, ptr %87, i32 0, i32 0
  %89 = getelementptr inbounds %struct.PS_PrivateRec_, ptr %88, i32 0, i32 11
  store i32 7, ptr %89, align 8
  %90 = load ptr, ptr %14, align 8
  %91 = getelementptr inbounds %struct.CID_FaceDictRec_, ptr %90, i32 0, i32 0
  %92 = getelementptr inbounds %struct.PS_PrivateRec_, ptr %91, i32 0, i32 12
  store i32 1, ptr %92, align 4
  %93 = load ptr, ptr %14, align 8
  %94 = getelementptr inbounds %struct.CID_FaceDictRec_, ptr %93, i32 0, i32 0
  %95 = getelementptr inbounds %struct.PS_PrivateRec_, ptr %94, i32 0, i32 1
  store i32 4, ptr %95, align 4
  %96 = load ptr, ptr %14, align 8
  %97 = getelementptr inbounds %struct.CID_FaceDictRec_, ptr %96, i32 0, i32 0
  %98 = getelementptr inbounds %struct.PS_PrivateRec_, ptr %97, i32 0, i32 21
  store i64 3932, ptr %98, align 8
  %99 = load ptr, ptr %14, align 8
  %100 = getelementptr inbounds %struct.CID_FaceDictRec_, ptr %99, i32 0, i32 0
  %101 = getelementptr inbounds %struct.PS_PrivateRec_, ptr %100, i32 0, i32 10
  store i64 2596864, ptr %101, align 8
  br label %102

102:                                              ; preds = %80
  %103 = load i32, ptr %13, align 4
  %104 = add i32 %103, 1
  store i32 %104, ptr %13, align 4
  br label %74, !llvm.loop !21

105:                                              ; preds = %74
  br label %106

106:                                              ; preds = %105, %55
  br label %107

107:                                              ; preds = %106, %68, %40
  ret void
}