; Function Attrs: nounwind uwtable
define internal void @parse_fd_array(ptr noundef captures(none) %0, ptr noundef %1) #2 {
  %3 = alloca i32, align 4
  %4 = getelementptr inbounds nuw i8, ptr %0, i64 184
  %5 = load ptr, ptr %4, align 8
  %6 = getelementptr inbounds nuw i8, ptr %1, i64 144
  %7 = load ptr, ptr %6, align 8
  store i32 0, ptr %3, align 4
  %8 = getelementptr inbounds nuw i8, ptr %1, i64 72
  %9 = load ptr, ptr %8, align 8
  %10 = tail call i64 %9(ptr noundef %1) #13
  %or.cond = icmp ugt i64 %10, 2147483647
  br i1 %or.cond, label %.loopexit, label %11

11:                                               ; preds = %2
  %12 = getelementptr inbounds nuw i8, ptr %7, i64 8
  %13 = load i64, ptr %12, align 8
  %14 = udiv i64 %13, 100
  %spec.select = tail call i64 @llvm.umin.i64(i64 %10, i64 %14)
  %15 = getelementptr inbounds nuw i8, ptr %0, i64 576
  %16 = load ptr, ptr %15, align 8
  %.not = icmp eq ptr %16, null
  br i1 %.not, label %17, label %.loopexit

17:                                               ; preds = %11
  %18 = call ptr @ft_mem_realloc(ptr noundef %5, i64 noundef 336, i64 noundef 0, i64 noundef %spec.select, ptr noundef null, ptr noundef nonnull %3) #13
  store ptr %18, ptr %15, align 8
  %19 = load i32, ptr %3, align 4
  %.not32 = icmp eq i32 %19, 0
  br i1 %.not32, label %20, label %.loopexit

20:                                               ; preds = %17
  %21 = trunc nuw nsw i64 %spec.select to i32
  %22 = getelementptr inbounds nuw i8, ptr %0, i64 568
  store i32 %21, ptr %22, align 8
  %.not34 = icmp eq i64 %spec.select, 0
  br i1 %.not34, label %.loopexit, label %.lr.ph

.lr.ph:                                           ; preds = %20, %.lr.ph
  %indvars.iv = phi i64 [ %indvars.iv.next, %.lr.ph ], [ 0, %20 ]
  %23 = load ptr, ptr %15, align 8
  %24 = getelementptr inbounds nuw %struct.CID_FaceDictRec_, ptr %23, i64 %indvars.iv
  %25 = getelementptr inbounds nuw i8, ptr %24, i64 120
  store i32 7, ptr %25, align 8
  %26 = getelementptr inbounds nuw i8, ptr %24, i64 124
  store i32 1, ptr %26, align 4
  %27 = getelementptr inbounds nuw i8, ptr %24, i64 4
  store i32 4, ptr %27, align 4
  %28 = getelementptr inbounds nuw i8, ptr %24, i64 192
  store i64 3932, ptr %28, align 8
  %29 = getelementptr inbounds nuw i8, ptr %24, i64 112
  store i64 2596864, ptr %29, align 8
  %indvars.iv.next = add nuw nsw i64 %indvars.iv, 1
  %30 = load i32, ptr %22, align 8
  %31 = zext i32 %30 to i64
  %32 = icmp samesign ult i64 %indvars.iv.next, %31
  br i1 %32, label %.lr.ph, label %.loopexit, !llvm.loop !21

.loopexit:                                        ; preds = %.lr.ph, %20, %11, %17, %2
  ret void
}